; Function Attrs: nounwind uwtable
define dso_local void @FormIndexDatum(ptr noundef captures(none) %0, ptr noundef %1, ptr noundef %2, ptr noundef writeonly captures(none) %3, ptr noundef writeonly captures(none) %4) local_unnamed_addr #0 {
  %6 = alloca i8, align 1
  %7 = getelementptr inbounds nuw i8, ptr %0, i64 80
  %8 = load ptr, ptr %7, align 8
  %.not = icmp eq ptr %8, null
  %.phi.trans.insert = getelementptr inbounds nuw i8, ptr %0, i64 88
  %.pre = load ptr, ptr %.phi.trans.insert, align 8
  br i1 %.not, label %._crit_edge43, label %9

9:                                                ; preds = %5
  %10 = icmp eq ptr %.pre, null
  br i1 %10, label %12, label %.thread

.thread:                                          ; preds = %9
  %11 = getelementptr inbounds nuw i8, ptr %0, i64 88
  br label %16

12:                                               ; preds = %9
  %13 = tail call ptr @ExecPrepareExprList(ptr noundef nonnull %8, ptr noundef %2) #11
  store ptr %13, ptr %.phi.trans.insert, align 8
  br label %._crit_edge43

._crit_edge43:                                    ; preds = %5, %12
  %14 = phi ptr [ %13, %12 ], [ %.pre, %5 ]
  %15 = getelementptr inbounds nuw i8, ptr %0, i64 88
  %.not.i = icmp eq ptr %14, null
  br i1 %.not.i, label %list_head.exit, label %16

16:                                               ; preds = %.thread, %._crit_edge43
  %17 = phi ptr [ %11, %.thread ], [ %15, %._crit_edge43 ]
  %18 = phi ptr [ %.pre, %.thread ], [ %14, %._crit_edge43 ]
  %19 = getelementptr inbounds nuw i8, ptr %18, i64 16
  %20 = load ptr, ptr %19, align 8
  br label %list_head.exit

list_head.exit:                                   ; preds = %._crit_edge43, %16
  %21 = phi ptr [ %17, %16 ], [ %15, %._crit_edge43 ]
  %22 = phi ptr [ %20, %16 ], [ null, %._crit_edge43 ]
  %23 = getelementptr inbounds nuw i8, ptr %0, i64 4
  %24 = load i32, ptr %23, align 4
  %25 = icmp sgt i32 %24, 0
  br i1 %25, label %.lr.ph, label %._crit_edge

.lr.ph:                                           ; preds = %list_head.exit
  %26 = getelementptr inbounds nuw i8, ptr %0, i64 12
  %27 = getelementptr inbounds nuw i8, ptr %1, i64 6
  %28 = getelementptr inbounds nuw i8, ptr %1, i64 32
  %29 = getelementptr inbounds nuw i8, ptr %1, i64 24
  %30 = getelementptr inbounds nuw i8, ptr %2, i64 264
  %31 = getelementptr inbounds nuw i8, ptr %1, i64 48
  %32 = ptrtoint ptr %31 to i64
  %33 = getelementptr inbounds nuw i8, ptr %1, i64 56
  %34 = getelementptr inbounds nuw i8, ptr %1, i64 8
  br label %35

35:                                               ; preds = %.lr.ph, %slot_getsysattr.exit
  %indvars.iv = phi i64 [ 0, %.lr.ph ], [ %indvars.iv.next, %slot_getsysattr.exit ]
  %.02941 = phi ptr [ %22, %.lr.ph ], [ %.1, %slot_getsysattr.exit ]
  %36 = getelementptr inbounds nuw [32 x i16], ptr %26, i64 0, i64 %indvars.iv
  %37 = load i16, ptr %36, align 2
  %38 = sext i16 %37 to i32
  call void @llvm.lifetime.start.p0(i64 1, ptr nonnull %6) #11
  %39 = icmp slt i16 %37, 0
  br i1 %39, label %40, label %50

40:                                               ; preds = %35
  switch i16 %37, label %45 [
    i16 -6, label %41
    i16 -1, label %44
  ]

41:                                               ; preds = %40
  store i8 0, ptr %6, align 1
  %42 = load i32, ptr %33, align 8
  %43 = zext i32 %42 to i64
  br label %slot_getsysattr.exit

44:                                               ; preds = %40
  store i8 0, ptr %6, align 1
  br label %slot_getsysattr.exit

45:                                               ; preds = %40
  %46 = load ptr, ptr %34, align 8
  %47 = getelementptr inbounds nuw i8, ptr %46, i64 40
  %48 = load ptr, ptr %47, align 8
  %49 = call i64 %48(ptr noundef %1, i32 noundef range(i32 -32768, 0) %38, ptr noundef nonnull %6) #11
  br label %slot_getsysattr.exit

50:                                               ; preds = %35
  %.not36 = icmp eq i16 %37, 0
  br i1 %.not36, label %62, label %51

51:                                               ; preds = %50
  %52 = load i16, ptr %27, align 2
  %53 = icmp sgt i16 %37, %52
  br i1 %53, label %slot_getsomeattrs.exit.i, label %slot_getattr.exit

slot_getsomeattrs.exit.i:                         ; preds = %51
  call void @slot_getsomeattrs_int(ptr noundef nonnull %1, i32 noundef range(i32 1, 32768) %38) #11
  br label %slot_getattr.exit

slot_getattr.exit:                                ; preds = %51, %slot_getsomeattrs.exit.i
  %54 = load ptr, ptr %28, align 8
  %55 = add nsw i32 %38, -1
  %56 = zext nneg i32 %55 to i64
  %57 = getelementptr inbounds nuw i8, ptr %54, i64 %56
  %58 = load i8, ptr %57, align 1, !range !4, !noundef !5
  store i8 %58, ptr %6, align 1
  %59 = load ptr, ptr %29, align 8
  %60 = getelementptr inbounds nuw i64, ptr %59, i64 %56
  %61 = load i64, ptr %60, align 8
  br label %slot_getsysattr.exit

62:                                               ; preds = %50
  %63 = icmp eq ptr %.02941, null
  br i1 %63, label %64, label %67

64:                                               ; preds = %62
  %65 = call zeroext i1 @errstart_cold(i32 noundef 21, ptr noundef null) #12
  call void @llvm.assume(i1 %65)
  %66 = call i32 (ptr, ...) @errmsg_internal(ptr noundef nonnull @.str.33) #11
  call void @errfinish(ptr noundef nonnull @.str.1, i32 noundef 2772, ptr noundef nonnull @__func__.FormIndexDatum) #11
  unreachable

67:                                               ; preds = %62
  %68 = load ptr, ptr %.02941, align 8
  %69 = load ptr, ptr %30, align 8
  %.not37 = icmp eq ptr %69, null
  br i1 %.not37, label %70, label %72

70:                                               ; preds = %67
  %71 = call ptr @MakePerTupleExprContext(ptr noundef nonnull %2) #11
  br label %72

72:                                               ; preds = %67, %70
  %73 = phi ptr [ %71, %70 ], [ %69, %67 ]
  %74 = getelementptr inbounds nuw i8, ptr %73, i64 40
  %75 = load ptr, ptr %74, align 8
  %76 = load ptr, ptr @CurrentMemoryContext, align 8
  store ptr %75, ptr @CurrentMemoryContext, align 8
  %77 = getelementptr inbounds nuw i8, ptr %68, i64 32
  %78 = load ptr, ptr %77, align 8
  %79 = call i64 %78(ptr noundef %68, ptr noundef %73, ptr noundef nonnull %6) #11
  store ptr %76, ptr @CurrentMemoryContext, align 8
  %80 = load ptr, ptr %21, align 8
  %81 = getelementptr i8, ptr %80, i64 4
  %.val = load i32, ptr %81, align 4
  %82 = getelementptr i8, ptr %80, i64 16
  %.val38 = load ptr, ptr %82, align 8
  %83 = getelementptr inbounds nuw i8, ptr %.02941, i64 8
  %84 = sext i32 %.val to i64
  %85 = getelementptr inbounds %union.ListCell, ptr %.val38, i64 %84
  %86 = icmp ult ptr %83, %85
  %..i = select i1 %86, ptr %83, ptr null
  br label %slot_getsysattr.exit

slot_getsysattr.exit:                             ; preds = %45, %44, %41, %slot_getattr.exit, %72
  %.1 = phi ptr [ %.02941, %slot_getattr.exit ], [ %..i, %72 ], [ %.02941, %41 ], [ %.02941, %44 ], [ %.02941, %45 ]
  %.0 = phi i64 [ %61, %slot_getattr.exit ], [ %79, %72 ], [ %43, %41 ], [ %32, %44 ], [ %49, %45 ]
  %87 = getelementptr inbounds nuw i64, ptr %3, i64 %indvars.iv
  store i64 %.0, ptr %87, align 8
  %88 = load i8, ptr %6, align 1, !range !4, !noundef !5
  %89 = getelementptr inbounds nuw i8, ptr %4, i64 %indvars.iv
  store i8 %88, ptr %89, align 1
  call void @llvm.lifetime.end.p0(i64 1, ptr nonnull %6) #11
  %indvars.iv.next = add nuw nsw i64 %indvars.iv, 1
  %90 = load i32, ptr %23, align 4
  %91 = sext i32 %90 to i64
  %92 = icmp slt i64 %indvars.iv.next, %91
  br i1 %92, label %35, label %._crit_edge, !llvm.loop !30

._crit_edge:                                      ; preds = %slot_getsysattr.exit, %list_head.exit
  %.029.lcssa = phi ptr [ %22, %list_head.exit ], [ %.1, %slot_getsysattr.exit ]
  %.not35 = icmp eq ptr %.029.lcssa, null
  br i1 %.not35, label %96, label %93

93:                                               ; preds = %._crit_edge
  %94 = call zeroext i1 @errstart_cold(i32 noundef 21, ptr noundef null) #12
  call void @llvm.assume(i1 %94)
  %95 = call i32 (ptr, ...) @errmsg_internal(ptr noundef nonnull @.str.33) #11
  call void @errfinish(ptr noundef nonnull @.str.1, i32 noundef 2783, ptr noundef nonnull @__func__.FormIndexDatum) #11
  unreachable

96:                                               ; preds = %._crit_edge
  ret void
}